target datalayout = "e-m:e-p270:32:32-p271:32:32-p272:64:64-i64:64-i128:128-f80:128-n8:16:32:64-S128"
target triple = "x86_64-pc-linux-gnu"

%class.AccessFlags = type { i32 }
%class.LayoutRawBlock = type <{ ptr, ptr, i32, i32, i32, i32, i32, i8, [3 x i8] }>
%class.GrowableArrayBase = type { i32, i32 }
%class.FieldLayout = type { ptr, ptr, ptr, ptr, ptr }
%class.FieldInfo = type <{ i32, i16, i16, i32, %class.AccessFlags, %"class.FieldInfo::FieldFlags", i16, i16, i16, [2 x i8] }>
%"class.FieldInfo::FieldFlags" = type { i32 }
%class.GrowableArrayView.2 = type { %class.GrowableArrayBase, ptr }

@g_assert_poison = external global ptr, align 8
@.str = private unnamed_addr constant [51 x i8] c"src/hotspot/share/classfile/fieldLayoutBuilder.cpp\00", align 1
@.str.4 = private unnamed_addr constant [76 x i8] c"Should have found a matching slot above, corrupted layout or invalid offset\00", align 1
@_ZN14LayoutRawBlockC1ENS_4KindEi = hidden unnamed_addr alias void (ptr, i32, i32), ptr @_ZN14LayoutRawBlockC2ENS_4KindEi

; Function Attrs: mustprogress nounwind uwtable
define linkonce_odr hidden void @_ZN14LayoutRawBlock14set_next_blockEPS_(ptr noundef nonnull align 8 dereferenceable(37) %0, ptr noundef %1) #1 comdat align 2 {
  %3 = alloca ptr, align 8
  %4 = alloca ptr, align 8
  store ptr %0, ptr %3, align 8
  store ptr %1, ptr %4, align 8
  %5 = load ptr, ptr %3, align 8
  %6 = load ptr, ptr %4, align 8
  %7 = getelementptr inbounds %class.LayoutRawBlock, ptr %5, i32 0, i32 0
  store ptr %6, ptr %7, align 8
  ret void
}

; Function Attrs: mustprogress nounwind uwtable
define linkonce_odr hidden void @_ZN14LayoutRawBlock14set_prev_blockEPS_(ptr noundef nonnull align 8 dereferenceable(37) %0, ptr noundef %1) #1 comdat align 2 {
  %3 = alloca ptr, align 8
  %4 = alloca ptr, align 8
  store ptr %0, ptr %3, align 8
  store ptr %1, ptr %4, align 8
  %5 = load ptr, ptr %3, align 8
  %6 = load ptr, ptr %4, align 8
  %7 = getelementptr inbounds %class.LayoutRawBlock, ptr %5, i32 0, i32 1
  store ptr %6, ptr %7, align 8
  ret void
}

; Function Attrs: mustprogress nounwind uwtable
define linkonce_odr hidden noundef ptr @_ZNK14LayoutRawBlock10prev_blockEv(ptr noundef nonnull align 8 dereferenceable(37) %0) #1 comdat align 2 {
  %2 = alloca ptr, align 8
  store ptr %0, ptr %2, align 8
  %3 = load ptr, ptr %2, align 8
  %4 = getelementptr inbounds %class.LayoutRawBlock, ptr %3, i32 0, i32 1
  %5 = load ptr, ptr %4, align 8
  ret ptr %5
}

; Function Attrs: mustprogress nounwind uwtable
define linkonce_odr hidden void @_ZN14LayoutRawBlock8set_sizeEi(ptr noundef nonnull align 8 dereferenceable(37) %0, i32 noundef %1) #1 comdat align 2 {
  %3 = alloca ptr, align 8
  %4 = alloca i32, align 4
  store ptr %0, ptr %3, align 8
  store i32 %1, ptr %4, align 4
  %5 = load ptr, ptr %3, align 8
  %6 = load i32, ptr %4, align 4
  %7 = getelementptr inbounds %class.LayoutRawBlock, ptr %5, i32 0, i32 5
  store i32 %6, ptr %7, align 4
  ret void
}

; Function Attrs: mustprogress nounwind uwtable
define linkonce_odr hidden noundef ptr @_ZNK14LayoutRawBlock10next_blockEv(ptr noundef nonnull align 8 dereferenceable(37) %0) #1 comdat align 2 {
  %2 = alloca ptr, align 8
  store ptr %0, ptr %2, align 8
  %3 = load ptr, ptr %2, align 8
  %4 = getelementptr inbounds %class.LayoutRawBlock, ptr %3, i32 0, i32 0
  %5 = load ptr, ptr %4, align 8
  ret ptr %5
}

; Function Attrs: mustprogress nounwind uwtable
define linkonce_odr hidden void @_ZN9FieldInfo10set_offsetEj(ptr noundef nonnull align 4 dereferenceable(26) %0, i32 noundef %1) #1 comdat align 2 {
  %3 = alloca ptr, align 8
  %4 = alloca i32, align 4
  store ptr %0, ptr %3, align 8
  store i32 %1, ptr %4, align 4
  %5 = load ptr, ptr %3, align 8
  %6 = load i32, ptr %4, align 4
  %7 = getelementptr inbounds %class.FieldInfo, ptr %5, i32 0, i32 3
  store i32 %6, ptr %7, align 4
  ret void
}

; Function Attrs: mustprogress nounwind uwtable
define linkonce_odr hidden noundef ptr @_ZNK17GrowableArrayViewI9FieldInfoE6adr_atEi(ptr noundef nonnull align 8 dereferenceable(16) %0, i32 noundef %1) #1 comdat align 2 {
  %3 = alloca ptr, align 8
  %4 = alloca i32, align 4
  store ptr %0, ptr %3, align 8
  store i32 %1, ptr %4, align 4
  %5 = load ptr, ptr %3, align 8
  %6 = getelementptr inbounds %class.GrowableArrayView.2, ptr %5, i32 0, i32 1
  %7 = load ptr, ptr %6, align 8
  %8 = load i32, ptr %4, align 4
  %9 = sext i32 %8 to i64
  %10 = getelementptr inbounds %class.FieldInfo, ptr %7, i64 %9
  ret ptr %10
}

; Function Attrs: mustprogress nounwind uwtable
define linkonce_odr hidden noundef i32 @_ZNK14LayoutRawBlock11field_indexEv(ptr noundef nonnull align 8 dereferenceable(37) %0) #1 comdat align 2 {
  %2 = alloca ptr, align 8
  store ptr %0, ptr %2, align 8
  %3 = load ptr, ptr %2, align 8
  %4 = getelementptr inbounds %class.LayoutRawBlock, ptr %3, i32 0, i32 6
  %5 = load i32, ptr %4, align 8
  ret i32 %5
}

; Function Attrs: mustprogress nounwind uwtable
define hidden void @_ZN11FieldLayout6removeEP14LayoutRawBlock(ptr noundef nonnull align 8 dereferenceable(40) %0, ptr noundef %1) #1 align 2 {
  %3 = alloca ptr, align 8
  %4 = alloca ptr, align 8
  store ptr %0, ptr %3, align 8
  store ptr %1, ptr %4, align 8
  %5 = load ptr, ptr %3, align 8
  %6 = getelementptr inbounds %class.FieldLayout, ptr %5, i32 0, i32 2
  %7 = load ptr, ptr %6, align 8
  %8 = load ptr, ptr %4, align 8
  %9 = icmp eq ptr %7, %8
  br i1 %9, label %10, label %21

10:                                               ; preds = %2
  %11 = load ptr, ptr %4, align 8
  %12 = call noundef ptr @_ZNK14LayoutRawBlock10next_blockEv(ptr noundef nonnull align 8 dereferenceable(37) %11)
  %13 = getelementptr inbounds %class.FieldLayout, ptr %5, i32 0, i32 2
  store ptr %12, ptr %13, align 8
  %14 = getelementptr inbounds %class.FieldLayout, ptr %5, i32 0, i32 2
  %15 = load ptr, ptr %14, align 8
  %16 = icmp ne ptr %15, null
  br i1 %16, label %17, label %20

17:                                               ; preds = %10
  %18 = getelementptr inbounds %class.FieldLayout, ptr %5, i32 0, i32 2
  %19 = load ptr, ptr %18, align 8
  call void @_ZN14LayoutRawBlock14set_prev_blockEPS_(ptr noundef nonnull align 8 dereferenceable(37) %19, ptr noundef null)
  br label %20

20:                                               ; preds = %17, %10
  br label %30

21:                                               ; preds = %2
  %22 = load ptr, ptr %4, align 8
  %23 = call noundef ptr @_ZNK14LayoutRawBlock10prev_blockEv(ptr noundef nonnull align 8 dereferenceable(37) %22)
  %24 = load ptr, ptr %4, align 8
  %25 = call noundef ptr @_ZNK14LayoutRawBlock10next_blockEv(ptr noundef nonnull align 8 dereferenceable(37) %24)
  call void @_ZN14LayoutRawBlock14set_next_blockEPS_(ptr noundef nonnull align 8 dereferenceable(37) %23, ptr noundef %25)
  %26 = load ptr, ptr %4, align 8
  %27 = call noundef ptr @_ZNK14LayoutRawBlock10next_blockEv(ptr noundef nonnull align 8 dereferenceable(37) %26)
  %28 = load ptr, ptr %4, align 8
  %29 = call noundef ptr @_ZNK14LayoutRawBlock10prev_blockEv(ptr noundef nonnull align 8 dereferenceable(37) %28)
  call void @_ZN14LayoutRawBlock14set_prev_blockEPS_(ptr noundef nonnull align 8 dereferenceable(37) %27, ptr noundef %29)
  br label %30

30:                                               ; preds = %21, %20
  %31 = load ptr, ptr %4, align 8
  %32 = getelementptr inbounds %class.FieldLayout, ptr %5, i32 0, i32 3
  %33 = load ptr, ptr %32, align 8
  %34 = icmp eq ptr %31, %33
  br i1 %34, label %35, label %39

35:                                               ; preds = %30
  %36 = load ptr, ptr %4, align 8
  %37 = call noundef ptr @_ZNK14LayoutRawBlock10prev_blockEv(ptr noundef nonnull align 8 dereferenceable(37) %36)
  %38 = getelementptr inbounds %class.FieldLayout, ptr %5, i32 0, i32 3
  store ptr %37, ptr %38, align 8
  br label %39

39:                                               ; preds = %35, %30
  ret void
}

; Function Attrs: mustprogress nounwind uwtable
define hidden noundef ptr @_ZN11FieldLayout6insertEP14LayoutRawBlockS1_(ptr noundef nonnull align 8 dereferenceable(40) %0, ptr noundef %1, ptr noundef %2) #1 align 2 {
  %4 = alloca ptr, align 8
  %5 = alloca ptr, align 8
  %6 = alloca ptr, align 8
  store ptr %0, ptr %4, align 8
  store ptr %1, ptr %5, align 8
  store ptr %2, ptr %6, align 8
  %7 = load ptr, ptr %4, align 8
  %8 = load ptr, ptr %6, align 8
  %9 = load ptr, ptr %5, align 8
  %10 = call noundef i32 @_ZNK14LayoutRawBlock6offsetEv(ptr noundef nonnull align 8 dereferenceable(37) %9)
  call void @_ZN14LayoutRawBlock10set_offsetEi(ptr noundef nonnull align 8 dereferenceable(37) %8, i32 noundef %10)
  %11 = load ptr, ptr %5, align 8
  %12 = load ptr, ptr %5, align 8
  %13 = call noundef i32 @_ZNK14LayoutRawBlock6offsetEv(ptr noundef nonnull align 8 dereferenceable(37) %12)
  %14 = load ptr, ptr %6, align 8
  %15 = call noundef i32 @_ZNK14LayoutRawBlock4sizeEv(ptr noundef nonnull align 8 dereferenceable(37) %14)
  %16 = add nsw i32 %13, %15
  call void @_ZN14LayoutRawBlock10set_offsetEi(ptr noundef nonnull align 8 dereferenceable(37) %11, i32 noundef %16)
  %17 = load ptr, ptr %5, align 8
  %18 = load ptr, ptr %5, align 8
  %19 = call noundef i32 @_ZNK14LayoutRawBlock4sizeEv(ptr noundef nonnull align 8 dereferenceable(37) %18)
  %20 = load ptr, ptr %6, align 8
  %21 = call noundef i32 @_ZNK14LayoutRawBlock4sizeEv(ptr noundef nonnull align 8 dereferenceable(37) %20)
  %22 = sub nsw i32 %19, %21
  call void @_ZN14LayoutRawBlock8set_sizeEi(ptr noundef nonnull align 8 dereferenceable(37) %17, i32 noundef %22)
  %23 = load ptr, ptr %6, align 8
  %24 = load ptr, ptr %5, align 8
  %25 = call noundef ptr @_ZNK14LayoutRawBlock10prev_blockEv(ptr noundef nonnull align 8 dereferenceable(37) %24)
  call void @_ZN14LayoutRawBlock14set_prev_blockEPS_(ptr noundef nonnull align 8 dereferenceable(37) %23, ptr noundef %25)
  %26 = load ptr, ptr %6, align 8
  %27 = load ptr, ptr %5, align 8
  call void @_ZN14LayoutRawBlock14set_next_blockEPS_(ptr noundef nonnull align 8 dereferenceable(37) %26, ptr noundef %27)
  %28 = load ptr, ptr %5, align 8
  %29 = load ptr, ptr %6, align 8
  call void @_ZN14LayoutRawBlock14set_prev_blockEPS_(ptr noundef nonnull align 8 dereferenceable(37) %28, ptr noundef %29)
  %30 = load ptr, ptr %6, align 8
  %31 = call noundef ptr @_ZNK14LayoutRawBlock10prev_blockEv(ptr noundef nonnull align 8 dereferenceable(37) %30)
  %32 = icmp ne ptr %31, null
  br i1 %32, label %33, label %37

33:                                               ; preds = %3
  %34 = load ptr, ptr %6, align 8
  %35 = call noundef ptr @_ZNK14LayoutRawBlock10prev_blockEv(ptr noundef nonnull align 8 dereferenceable(37) %34)
  %36 = load ptr, ptr %6, align 8
  call void @_ZN14LayoutRawBlock14set_next_blockEPS_(ptr noundef nonnull align 8 dereferenceable(37) %35, ptr noundef %36)
  br label %37

37:                                               ; preds = %33, %3
  %38 = getelementptr inbounds %class.FieldLayout, ptr %7, i32 0, i32 2
  %39 = load ptr, ptr %38, align 8
  %40 = load ptr, ptr %5, align 8
  %41 = icmp eq ptr %39, %40
  br i1 %41, label %42, label %45

42:                                               ; preds = %37
  %43 = load ptr, ptr %6, align 8
  %44 = getelementptr inbounds %class.FieldLayout, ptr %7, i32 0, i32 2
  store ptr %43, ptr %44, align 8
  br label %45

45:                                               ; preds = %42, %37
  %46 = load ptr, ptr %6, align 8
  ret ptr %46
}

; Function Attrs: mustprogress nounwind uwtable
define linkonce_odr hidden noundef ptr @_ZN11ResourceObjnwEm(i64 noundef %0) #1 comdat align 2 {
  %2 = alloca i64, align 8
  store i64 %0, ptr %2, align 8
  %3 = load i64, ptr %2, align 8
  %4 = call noundef ptr @_Z23resource_allocate_bytesmN17AllocFailStrategy13AllocFailEnumE(i64 noundef %3, i32 noundef 0)
  ret ptr %4
}

; Function Attrs: mustprogress nounwind uwtable
define linkonce_odr hidden noundef i32 @_ZNK14LayoutRawBlock4sizeEv(ptr noundef nonnull align 8 dereferenceable(37) %0) #1 comdat align 2 {
  %2 = alloca ptr, align 8
  store ptr %0, ptr %2, align 8
  %3 = load ptr, ptr %2, align 8
  %4 = getelementptr inbounds %class.LayoutRawBlock, ptr %3, i32 0, i32 5
  %5 = load i32, ptr %4, align 4
  ret i32 %5
}

; Function Attrs: mustprogress nounwind uwtable
define linkonce_odr hidden noundef i32 @_ZNK14LayoutRawBlock6offsetEv(ptr noundef nonnull align 8 dereferenceable(37) %0) #1 comdat align 2 {
  %2 = alloca ptr, align 8
  store ptr %0, ptr %2, align 8
  %3 = load ptr, ptr %2, align 8
  %4 = getelementptr inbounds %class.LayoutRawBlock, ptr %3, i32 0, i32 3
  %5 = load i32, ptr %4, align 4
  ret i32 %5
}

; Function Attrs: mustprogress nounwind uwtable
define linkonce_odr hidden void @_ZN14LayoutRawBlock10set_offsetEi(ptr noundef nonnull align 8 dereferenceable(37) %0, i32 noundef %1) #1 comdat align 2 {
  %3 = alloca ptr, align 8
  %4 = alloca i32, align 4
  store ptr %0, ptr %3, align 8
  store i32 %1, ptr %4, align 4
  %5 = load ptr, ptr %3, align 8
  %6 = load i32, ptr %4, align 4
  %7 = getelementptr inbounds %class.LayoutRawBlock, ptr %5, i32 0, i32 3
  store i32 %6, ptr %7, align 4
  ret void
}

; Function Attrs: mustprogress nounwind uwtable
define hidden void @_ZN11FieldLayout19add_field_at_offsetEP14LayoutRawBlockiS1_(ptr noundef nonnull align 8 dereferenceable(40) %0, ptr noundef %1, i32 noundef %2, ptr noundef %3) #1 align 2 {
  %5 = alloca ptr, align 8
  %6 = alloca ptr, align 8
  %7 = alloca i32, align 4
  %8 = alloca ptr, align 8
  %9 = alloca ptr, align 8
  %10 = alloca i32, align 4
  %11 = alloca ptr, align 8
  store ptr %0, ptr %5, align 8
  store ptr %1, ptr %6, align 8
  store i32 %2, ptr %7, align 4
  store ptr %3, ptr %8, align 8
  %12 = load ptr, ptr %5, align 8
  %13 = load ptr, ptr %6, align 8
  %14 = load i32, ptr %7, align 4
  call void @_ZN14LayoutRawBlock10set_offsetEi(ptr noundef nonnull align 8 dereferenceable(37) %13, i32 noundef %14)
  %15 = load ptr, ptr %8, align 8
  %16 = icmp eq ptr %15, null
  br i1 %16, label %17, label %20

17:                                               ; preds = %4
  %18 = getelementptr inbounds %class.FieldLayout, ptr %12, i32 0, i32 3
  %19 = load ptr, ptr %18, align 8
  store ptr %19, ptr %8, align 8
  br label %20

20:                                               ; preds = %17, %4
  %21 = load ptr, ptr %8, align 8
  store ptr %21, ptr %9, align 8
  br label %22

22:                                               ; preds = %79, %20
  %23 = load ptr, ptr %9, align 8
  %24 = icmp ne ptr %23, null
  br i1 %24, label %25, label %82

25:                                               ; preds = %22
  %26 = load ptr, ptr %9, align 8
  %27 = call noundef i32 @_ZNK14LayoutRawBlock6offsetEv(ptr noundef nonnull align 8 dereferenceable(37) %26)
  %28 = load ptr, ptr %6, align 8
  %29 = call noundef i32 @_ZNK14LayoutRawBlock6offsetEv(ptr noundef nonnull align 8 dereferenceable(37) %28)
  %30 = icmp sle i32 %27, %29
  br i1 %30, label %31, label %40

31:                                               ; preds = %25
  %32 = load ptr, ptr %9, align 8
  %33 = call noundef i32 @_ZNK14LayoutRawBlock6offsetEv(ptr noundef nonnull align 8 dereferenceable(37) %32)
  %34 = load ptr, ptr %9, align 8
  %35 = call noundef i32 @_ZNK14LayoutRawBlock4sizeEv(ptr noundef nonnull align 8 dereferenceable(37) %34)
  %36 = add nsw i32 %33, %35
  %37 = load ptr, ptr %6, align 8
  %38 = call noundef i32 @_ZNK14LayoutRawBlock6offsetEv(ptr noundef nonnull align 8 dereferenceable(37) %37)
  %39 = icmp sgt i32 %36, %38
  br i1 %39, label %45, label %40

40:                                               ; preds = %31, %25
  %41 = load ptr, ptr %9, align 8
  %42 = getelementptr inbounds %class.FieldLayout, ptr %12, i32 0, i32 4
  %43 = load ptr, ptr %42, align 8
  %44 = icmp eq ptr %41, %43
  br i1 %44, label %45, label %79

45:                                               ; preds = %40, %31
  %46 = load ptr, ptr %9, align 8
  %47 = call noundef i32 @_ZNK14LayoutRawBlock6offsetEv(ptr noundef nonnull align 8 dereferenceable(37) %46)
  %48 = load ptr, ptr %6, align 8
  %49 = call noundef i32 @_ZNK14LayoutRawBlock6offsetEv(ptr noundef nonnull align 8 dereferenceable(37) %48)
  %50 = icmp slt i32 %47, %49
  br i1 %50, label %51, label %62

51:                                               ; preds = %45
  %52 = load ptr, ptr %6, align 8
  %53 = call noundef i32 @_ZNK14LayoutRawBlock6offsetEv(ptr noundef nonnull align 8 dereferenceable(37) %52)
  %54 = load ptr, ptr %9, align 8
  %55 = call noundef i32 @_ZNK14LayoutRawBlock6offsetEv(ptr noundef nonnull align 8 dereferenceable(37) %54)
  %56 = sub nsw i32 %53, %55
  store i32 %56, ptr %10, align 4
  %57 = call noundef ptr @_ZN11ResourceObjnwEm(i64 noundef 40)
  %58 = load i32, ptr %10, align 4
  call void @_ZN14LayoutRawBlockC1ENS_4KindEi(ptr noundef nonnull align 8 dereferenceable(37) %57, i32 noundef 0, i32 noundef %58)
  store ptr %57, ptr %11, align 8
  %59 = load ptr, ptr %9, align 8
  %60 = load ptr, ptr %11, align 8
  %61 = call noundef ptr @_ZN11FieldLayout6insertEP14LayoutRawBlockS1_(ptr noundef nonnull align 8 dereferenceable(40) %12, ptr noundef %59, ptr noundef %60)
  br label %62

62:                                               ; preds = %51, %45
  %63 = load ptr, ptr %9, align 8
  %64 = load ptr, ptr %6, align 8
  %65 = call noundef ptr @_ZN11FieldLayout6insertEP14LayoutRawBlockS1_(ptr noundef nonnull align 8 dereferenceable(40) %12, ptr noundef %63, ptr noundef %64)
  %66 = load ptr, ptr %9, align 8
  %67 = call noundef i32 @_ZNK14LayoutRawBlock4sizeEv(ptr noundef nonnull align 8 dereferenceable(37) %66)
  %68 = icmp eq i32 %67, 0
  br i1 %68, label %69, label %71

69:                                               ; preds = %62
  %70 = load ptr, ptr %9, align 8
  call void @_ZN11FieldLayout6removeEP14LayoutRawBlock(ptr noundef nonnull align 8 dereferenceable(40) %12, ptr noundef %70)
  br label %71

71:                                               ; preds = %69, %62
  %72 = getelementptr inbounds %class.FieldLayout, ptr %12, i32 0, i32 0
  %73 = load ptr, ptr %72, align 8
  %74 = load ptr, ptr %6, align 8
  %75 = call noundef i32 @_ZNK14LayoutRawBlock11field_indexEv(ptr noundef nonnull align 8 dereferenceable(37) %74)
  %76 = call noundef ptr @_ZNK17GrowableArrayViewI9FieldInfoE6adr_atEi(ptr noundef nonnull align 8 dereferenceable(16) %73, i32 noundef %75)
  %77 = load ptr, ptr %6, align 8
  %78 = call noundef i32 @_ZNK14LayoutRawBlock6offsetEv(ptr noundef nonnull align 8 dereferenceable(37) %77)
  call void @_ZN9FieldInfo10set_offsetEj(ptr noundef nonnull align 4 dereferenceable(26) %76, i32 noundef %78)
  br label %85

79:                                               ; preds = %40
  %80 = load ptr, ptr %9, align 8
  %81 = call noundef ptr @_ZNK14LayoutRawBlock10next_blockEv(ptr noundef nonnull align 8 dereferenceable(37) %80)
  store ptr %81, ptr %9, align 8
  br label %22, !llvm.loop !15

82:                                               ; preds = %22
  br label %83

83:                                               ; preds = %82
  %84 = load ptr, ptr @g_assert_poison, align 8
  store i8 88, ptr %84, align 1
  call void (i32, ptr, i32, ptr, ...) @_Z12report_fatal11VMErrorTypePKciS1_z(i32 noundef -536870912, ptr noundef @.str, i32 noundef 239, ptr noundef @.str.4) #8
  unreachable

85:                                               ; preds = %71
  ret void
}