; Function Attrs: mustprogress nounwind uwtable
define hidden void @_ZN11FieldLayout19add_field_at_offsetEP14LayoutRawBlockiS1_(ptr nocapture noundef nonnull align 8 dereferenceable(40) %0, ptr noundef %1, i32 noundef %2, ptr noundef %3) local_unnamed_addr #2 align 2 {
  %5 = getelementptr inbounds i8, ptr %1, i64 20
  store i32 %2, ptr %5, align 4
  %6 = icmp eq ptr %3, null
  %7 = getelementptr inbounds i8, ptr %0, i64 24
  %8 = load ptr, ptr %7, align 8
  %.0 = select i1 %6, ptr %8, ptr %3
  %.not35 = icmp eq ptr %.0, null
  br i1 %.not35, label %._crit_edge, label %.lr.ph

.lr.ph:                                           ; preds = %4
  %9 = getelementptr inbounds i8, ptr %0, i64 32
  %10 = load ptr, ptr %9, align 8
  br label %11

11:                                               ; preds = %.lr.ph, %91
  %.02536 = phi ptr [ %.0, %.lr.ph ], [ %92, %91 ]
  %12 = getelementptr inbounds i8, ptr %.02536, i64 20
  %13 = load i32, ptr %12, align 4
  %.not27 = icmp sgt i32 %13, %2
  br i1 %.not27, label %20, label %14

14:                                               ; preds = %11
  %15 = getelementptr inbounds i8, ptr %.02536, i64 28
  %16 = load i32, ptr %15, align 4
  %17 = add nsw i32 %16, %13
  %18 = icmp sgt i32 %17, %2
  %19 = icmp eq ptr %.02536, %10
  %or.cond = select i1 %18, i1 true, i1 %19
  br i1 %or.cond, label %21, label %91

20:                                               ; preds = %11
  %.old29 = icmp eq ptr %.02536, %10
  br i1 %.old29, label %21, label %91

21:                                               ; preds = %20, %14
  %22 = getelementptr inbounds i8, ptr %.02536, i64 20
  %23 = icmp slt i32 %13, %2
  br i1 %23, label %24, label %_ZN11FieldLayout6insertEP14LayoutRawBlockS1_.exit

24:                                               ; preds = %21
  %25 = sub nsw i32 %2, %13
  %26 = tail call noundef ptr @_Z23resource_allocate_bytesmN17AllocFailStrategy13AllocFailEnumE(i64 noundef 40, i32 noundef 0) #13
  %27 = getelementptr inbounds i8, ptr %26, i64 20
  tail call void @llvm.memset.p0.i64(ptr noundef nonnull align 8 dereferenceable(20) %26, i8 0, i64 20, i1 false)
  store i32 -1, ptr %27, align 4
  %28 = getelementptr inbounds i8, ptr %26, i64 24
  store i32 1, ptr %28, align 8
  %29 = getelementptr inbounds i8, ptr %26, i64 28
  store i32 %25, ptr %29, align 4
  %30 = getelementptr inbounds i8, ptr %26, i64 32
  store i32 -1, ptr %30, align 8
  %31 = getelementptr inbounds i8, ptr %26, i64 36
  store i8 0, ptr %31, align 4
  %32 = load i32, ptr %22, align 4
  store i32 %32, ptr %27, align 4
  %33 = add nsw i32 %32, %25
  store i32 %33, ptr %22, align 4
  %34 = getelementptr inbounds i8, ptr %.02536, i64 28
  %35 = load i32, ptr %34, align 4
  %36 = load i32, ptr %29, align 4
  %37 = sub nsw i32 %35, %36
  store i32 %37, ptr %34, align 4
  %38 = getelementptr inbounds i8, ptr %.02536, i64 8
  %39 = load ptr, ptr %38, align 8
  %40 = getelementptr inbounds i8, ptr %26, i64 8
  store ptr %39, ptr %40, align 8
  store ptr %.02536, ptr %26, align 8
  store ptr %26, ptr %38, align 8
  %41 = load ptr, ptr %40, align 8
  %.not.i = icmp eq ptr %41, null
  br i1 %.not.i, label %43, label %42

42:                                               ; preds = %24
  store ptr %26, ptr %41, align 8
  br label %43

43:                                               ; preds = %42, %24
  %44 = getelementptr inbounds i8, ptr %0, i64 16
  %45 = load ptr, ptr %44, align 8
  %46 = icmp eq ptr %45, %.02536
  br i1 %46, label %47, label %_ZN11FieldLayout6insertEP14LayoutRawBlockS1_.exit

47:                                               ; preds = %43
  store ptr %26, ptr %44, align 8
  br label %_ZN11FieldLayout6insertEP14LayoutRawBlockS1_.exit

_ZN11FieldLayout6insertEP14LayoutRawBlockS1_.exit: ; preds = %47, %43, %21
  %48 = load i32, ptr %22, align 4
  store i32 %48, ptr %5, align 4
  %49 = getelementptr inbounds i8, ptr %1, i64 28
  %50 = load i32, ptr %49, align 4
  %51 = add nsw i32 %50, %48
  store i32 %51, ptr %22, align 4
  %52 = getelementptr inbounds i8, ptr %.02536, i64 28
  %53 = load i32, ptr %52, align 4
  %54 = load i32, ptr %49, align 4
  %55 = sub nsw i32 %53, %54
  store i32 %55, ptr %52, align 4
  %56 = getelementptr inbounds i8, ptr %.02536, i64 8
  %57 = load ptr, ptr %56, align 8
  %58 = getelementptr inbounds i8, ptr %1, i64 8
  store ptr %57, ptr %58, align 8
  store ptr %.02536, ptr %1, align 8
  store ptr %1, ptr %56, align 8
  %59 = load ptr, ptr %58, align 8
  %.not.i30 = icmp eq ptr %59, null
  br i1 %.not.i30, label %61, label %60

60:                                               ; preds = %_ZN11FieldLayout6insertEP14LayoutRawBlockS1_.exit
  store ptr %1, ptr %59, align 8
  br label %61

61:                                               ; preds = %60, %_ZN11FieldLayout6insertEP14LayoutRawBlockS1_.exit
  %62 = getelementptr inbounds i8, ptr %0, i64 16
  %63 = load ptr, ptr %62, align 8
  %64 = icmp eq ptr %63, %.02536
  br i1 %64, label %65, label %_ZN11FieldLayout6insertEP14LayoutRawBlockS1_.exit31

65:                                               ; preds = %61
  store ptr %1, ptr %62, align 8
  br label %_ZN11FieldLayout6insertEP14LayoutRawBlockS1_.exit31

_ZN11FieldLayout6insertEP14LayoutRawBlockS1_.exit31: ; preds = %61, %65
  %66 = phi ptr [ %63, %61 ], [ %1, %65 ]
  %67 = load i32, ptr %52, align 4
  %68 = icmp eq i32 %67, 0
  br i1 %68, label %69, label %_ZN11FieldLayout6removeEP14LayoutRawBlock.exit

69:                                               ; preds = %_ZN11FieldLayout6insertEP14LayoutRawBlockS1_.exit31
  %70 = icmp eq ptr %66, %.02536
  br i1 %70, label %71, label %73

71:                                               ; preds = %69
  %72 = load ptr, ptr %.02536, align 8
  store ptr %72, ptr %62, align 8
  %.not.i32 = icmp eq ptr %72, null
  br i1 %.not.i32, label %78, label %.sink.split.i

73:                                               ; preds = %69
  %74 = load ptr, ptr %56, align 8
  %75 = load ptr, ptr %.02536, align 8
  store ptr %75, ptr %74, align 8
  %76 = load ptr, ptr %56, align 8
  br label %.sink.split.i

.sink.split.i:                                    ; preds = %73, %71
  %.sink11.i = phi ptr [ %75, %73 ], [ %72, %71 ]
  %.sink.i = phi ptr [ %76, %73 ], [ null, %71 ]
  %77 = getelementptr inbounds i8, ptr %.sink11.i, i64 8
  store ptr %.sink.i, ptr %77, align 8
  br label %78

78:                                               ; preds = %.sink.split.i, %71
  %79 = load ptr, ptr %7, align 8
  %80 = icmp eq ptr %79, %.02536
  br i1 %80, label %81, label %_ZN11FieldLayout6removeEP14LayoutRawBlock.exit

81:                                               ; preds = %78
  %82 = load ptr, ptr %56, align 8
  store ptr %82, ptr %7, align 8
  br label %_ZN11FieldLayout6removeEP14LayoutRawBlock.exit

_ZN11FieldLayout6removeEP14LayoutRawBlock.exit:   ; preds = %81, %78, %_ZN11FieldLayout6insertEP14LayoutRawBlockS1_.exit31
  %83 = load ptr, ptr %0, align 8
  %84 = getelementptr inbounds i8, ptr %1, i64 32
  %85 = load i32, ptr %84, align 8
  %86 = getelementptr inbounds i8, ptr %83, i64 8
  %87 = load ptr, ptr %86, align 8
  %88 = sext i32 %85 to i64
  %89 = load i32, ptr %5, align 4
  %90 = getelementptr inbounds %class.FieldInfo, ptr %87, i64 %88, i32 3
  store i32 %89, ptr %90, align 4
  ret void

91:                                               ; preds = %14, %20
  %92 = load ptr, ptr %.02536, align 8
  %.not = icmp eq ptr %92, null
  br i1 %.not, label %._crit_edge, label %11, !llvm.loop !17

._crit_edge:                                      ; preds = %91, %4
  %93 = load ptr, ptr @g_assert_poison, align 8
  store i8 88, ptr %93, align 1
  tail call void (i32, ptr, i32, ptr, ...) @_Z12report_fatal11VMErrorTypePKciS1_z(i32 noundef -536870912, ptr noundef nonnull @.str, i32 noundef 239, ptr noundef nonnull @.str.4) #14
  unreachable
}